#include <math.h>
#include <stdio.h>
#include <stdlib.h>
#include <string.h>
#include <iostream>
using namespace std;

/*
 * ???????.cpp
 *
 *  ??: 2012-11-3
 *  ????????
 */
int main()
{
	int n,i,j,m=0;                     //????
	cin>>n;                            //????
	int a[n];                          //????
	for(i=0;i<n;i++)                   //??????
		cin>>a[i];
	for(i=0;i<n;i++){                  //????
		int t=0;                       //???t
 		for(j=0;j<i;j++)               //??????????
			if(a[i]==a[j])
	           {t++;                   //?????t?????????
				break;
				}
	if(t==0){                         //?t??0
		if(m>0) cout<<" ";            //?????????????
		cout<<a[i];                   //????
		m++;
	}
	}
	return 0;

}
